; Function Attrs: mustprogress nofree norecurse nosync nounwind willreturn memory(read, inaccessiblemem: none) uwtable
define hidden noundef i64 @_ZN32ZRememberedSetContainingIterator8to_indexE15zaddress_unsafe(ptr nocapture noundef nonnull readonly align 8 dereferenceable(64) %0, i64 noundef %1) local_unnamed_addr #7 align 2 {
  %3 = load ptr, ptr %0, align 8
  %4 = load i64, ptr @ZAddressOffsetMask, align 8
  %5 = and i64 %4, %1
  %6 = getelementptr inbounds i8, ptr %3, i64 16
  %7 = load i64, ptr %6, align 8
  %8 = sub i64 %5, %7
  %9 = lshr i64 %8, 3
  ret i64 %9
}